target datalayout = "e-m:e-p270:32:32-p271:32:32-p272:64:64-i64:64-i128:128-f80:128-n8:16:32:64-S128"
target triple = "x86_64-pc-linux-gnu"

%struct.huffman = type { i32, [17 x i32], ptr, i32, i32, i32, ptr }

; Function Attrs: nounwind uwtable
define internal i32 @lzx_make_huffman_table(ptr noundef %0) #0 {
  %2 = alloca i32, align 4
  %3 = alloca ptr, align 8
  %4 = alloca ptr, align 8
  %5 = alloca ptr, align 8
  %6 = alloca [17 x i32], align 16
  %7 = alloca [17 x i32], align 16
  %8 = alloca i32, align 4
  %9 = alloca i32, align 4
  %10 = alloca i32, align 4
  %11 = alloca i32, align 4
  %12 = alloca i32, align 4
  %13 = alloca i32, align 4
  %14 = alloca i32, align 4
  %15 = alloca i32, align 4
  %16 = alloca ptr, align 8
  %17 = alloca i32, align 4
  %18 = alloca i32, align 4
  store ptr %0, ptr %3, align 8, !tbaa !217
  call void @llvm.lifetime.start.p0(i64 8, ptr %4) #11
  call void @llvm.lifetime.start.p0(i64 8, ptr %5) #11
  call void @llvm.lifetime.start.p0(i64 68, ptr %6) #11
  call void @llvm.lifetime.start.p0(i64 68, ptr %7) #11
  call void @llvm.lifetime.start.p0(i64 4, ptr %8) #11
  call void @llvm.lifetime.start.p0(i64 4, ptr %9) #11
  store i32 0, ptr %9, align 4, !tbaa !11
  call void @llvm.lifetime.start.p0(i64 4, ptr %10) #11
  call void @llvm.lifetime.start.p0(i64 4, ptr %11) #11
  call void @llvm.lifetime.start.p0(i64 4, ptr %12) #11
  call void @llvm.lifetime.start.p0(i64 4, ptr %13) #11
  store i32 0, ptr %10, align 4, !tbaa !11
  store i32 1, ptr %8, align 4, !tbaa !11
  store i32 32768, ptr %12, align 4, !tbaa !11
  br label %19

19:                                               ; preds = %51, %1
  %20 = load i32, ptr %8, align 4, !tbaa !11
  %21 = icmp sle i32 %20, 16
  br i1 %21, label %22, label %56

22:                                               ; preds = %19
  %23 = load i32, ptr %10, align 4, !tbaa !11
  %24 = load i32, ptr %8, align 4, !tbaa !11
  %25 = sext i32 %24 to i64
  %26 = getelementptr inbounds [17 x i32], ptr %6, i64 0, i64 %25
  store i32 %23, ptr %26, align 4, !tbaa !11
  %27 = load i32, ptr %12, align 4, !tbaa !11
  %28 = load i32, ptr %8, align 4, !tbaa !11
  %29 = sext i32 %28 to i64
  %30 = getelementptr inbounds [17 x i32], ptr %7, i64 0, i64 %29
  store i32 %27, ptr %30, align 4, !tbaa !11
  %31 = load ptr, ptr %3, align 8, !tbaa !217
  %32 = getelementptr inbounds nuw %struct.huffman, ptr %31, i32 0, i32 1
  %33 = load i32, ptr %8, align 4, !tbaa !11
  %34 = sext i32 %33 to i64
  %35 = getelementptr inbounds [17 x i32], ptr %32, i64 0, i64 %34
  %36 = load i32, ptr %35, align 4, !tbaa !11
  %37 = icmp ne i32 %36, 0
  br i1 %37, label %38, label %50

38:                                               ; preds = %22
  %39 = load ptr, ptr %3, align 8, !tbaa !217
  %40 = getelementptr inbounds nuw %struct.huffman, ptr %39, i32 0, i32 1
  %41 = load i32, ptr %8, align 4, !tbaa !11
  %42 = sext i32 %41 to i64
  %43 = getelementptr inbounds [17 x i32], ptr %40, i64 0, i64 %42
  %44 = load i32, ptr %43, align 4, !tbaa !11
  %45 = load i32, ptr %12, align 4, !tbaa !11
  %46 = mul nsw i32 %44, %45
  %47 = load i32, ptr %10, align 4, !tbaa !11
  %48 = add nsw i32 %47, %46
  store i32 %48, ptr %10, align 4, !tbaa !11
  %49 = load i32, ptr %8, align 4, !tbaa !11
  store i32 %49, ptr %9, align 4, !tbaa !11
  br label %50

50:                                               ; preds = %38, %22
  br label %51

51:                                               ; preds = %50
  %52 = load i32, ptr %8, align 4, !tbaa !11
  %53 = add nsw i32 %52, 1
  store i32 %53, ptr %8, align 4, !tbaa !11
  %54 = load i32, ptr %12, align 4, !tbaa !11
  %55 = ashr i32 %54, 1
  store i32 %55, ptr %12, align 4, !tbaa !11
  br label %19, !llvm.loop !251

56:                                               ; preds = %19
  %57 = load i32, ptr %10, align 4, !tbaa !11
  %58 = and i32 %57, 65535
  %59 = icmp ne i32 %58, 0
  br i1 %59, label %66, label %60

60:                                               ; preds = %56
  %61 = load i32, ptr %9, align 4, !tbaa !11
  %62 = load ptr, ptr %3, align 8, !tbaa !217
  %63 = getelementptr inbounds nuw %struct.huffman, ptr %62, i32 0, i32 4
  %64 = load i32, ptr %63, align 4, !tbaa !222
  %65 = icmp sgt i32 %61, %64
  br i1 %65, label %66, label %67

66:                                               ; preds = %60, %56
  store i32 0, ptr %2, align 4
  store i32 1, ptr %14, align 4
  br label %179

67:                                               ; preds = %60
  %68 = load i32, ptr %9, align 4, !tbaa !11
  %69 = load ptr, ptr %3, align 8, !tbaa !217
  %70 = getelementptr inbounds nuw %struct.huffman, ptr %69, i32 0, i32 3
  store i32 %68, ptr %70, align 8, !tbaa !244
  %71 = load i32, ptr %9, align 4, !tbaa !11
  %72 = icmp slt i32 %71, 16
  br i1 %72, label %73, label %97

73:                                               ; preds = %67
  call void @llvm.lifetime.start.p0(i64 4, ptr %15) #11
  %74 = load i32, ptr %9, align 4, !tbaa !11
  %75 = sub nsw i32 16, %74
  store i32 %75, ptr %15, align 4, !tbaa !11
  store i32 1, ptr %8, align 4, !tbaa !11
  br label %76

76:                                               ; preds = %93, %73
  %77 = load i32, ptr %8, align 4, !tbaa !11
  %78 = load i32, ptr %9, align 4, !tbaa !11
  %79 = icmp sle i32 %77, %78
  br i1 %79, label %80, label %96

80:                                               ; preds = %76
  %81 = load i32, ptr %15, align 4, !tbaa !11
  %82 = load i32, ptr %8, align 4, !tbaa !11
  %83 = sext i32 %82 to i64
  %84 = getelementptr inbounds [17 x i32], ptr %6, i64 0, i64 %83
  %85 = load i32, ptr %84, align 4, !tbaa !11
  %86 = ashr i32 %85, %81
  store i32 %86, ptr %84, align 4, !tbaa !11
  %87 = load i32, ptr %15, align 4, !tbaa !11
  %88 = load i32, ptr %8, align 4, !tbaa !11
  %89 = sext i32 %88 to i64
  %90 = getelementptr inbounds [17 x i32], ptr %7, i64 0, i64 %89
  %91 = load i32, ptr %90, align 4, !tbaa !11
  %92 = ashr i32 %91, %87
  store i32 %92, ptr %90, align 4, !tbaa !11
  br label %93

93:                                               ; preds = %80
  %94 = load i32, ptr %8, align 4, !tbaa !11
  %95 = add nsw i32 %94, 1
  store i32 %95, ptr %8, align 4, !tbaa !11
  br label %76, !llvm.loop !252

96:                                               ; preds = %76
  call void @llvm.lifetime.end.p0(i64 4, ptr %15) #11
  br label %97

97:                                               ; preds = %96, %67
  %98 = load ptr, ptr %3, align 8, !tbaa !217
  %99 = getelementptr inbounds nuw %struct.huffman, ptr %98, i32 0, i32 4
  %100 = load i32, ptr %99, align 4, !tbaa !222
  %101 = shl i32 1, %100
  store i32 %101, ptr %11, align 4, !tbaa !11
  %102 = load ptr, ptr %3, align 8, !tbaa !217
  %103 = getelementptr inbounds nuw %struct.huffman, ptr %102, i32 0, i32 6
  %104 = load ptr, ptr %103, align 8, !tbaa !221
  store ptr %104, ptr %4, align 8, !tbaa !253
  %105 = load ptr, ptr %3, align 8, !tbaa !217
  %106 = getelementptr inbounds nuw %struct.huffman, ptr %105, i32 0, i32 2
  %107 = load ptr, ptr %106, align 8, !tbaa !219
  store ptr %107, ptr %5, align 8, !tbaa !33
  %108 = load ptr, ptr %3, align 8, !tbaa !217
  %109 = getelementptr inbounds nuw %struct.huffman, ptr %108, i32 0, i32 0
  %110 = load i32, ptr %109, align 8, !tbaa !220
  store i32 %110, ptr %13, align 4, !tbaa !11
  %111 = load ptr, ptr %3, align 8, !tbaa !217
  %112 = getelementptr inbounds nuw %struct.huffman, ptr %111, i32 0, i32 5
  store i32 0, ptr %112, align 8, !tbaa !254
  store i32 0, ptr %8, align 4, !tbaa !11
  br label %113

113:                                              ; preds = %175, %97
  %114 = load i32, ptr %8, align 4, !tbaa !11
  %115 = load i32, ptr %13, align 4, !tbaa !11
  %116 = icmp slt i32 %114, %115
  br i1 %116, label %117, label %178

117:                                              ; preds = %113
  call void @llvm.lifetime.start.p0(i64 8, ptr %16) #11
  call void @llvm.lifetime.start.p0(i64 4, ptr %17) #11
  call void @llvm.lifetime.start.p0(i64 4, ptr %18) #11
  %118 = load ptr, ptr %5, align 8, !tbaa !33
  %119 = load i32, ptr %8, align 4, !tbaa !11
  %120 = sext i32 %119 to i64
  %121 = getelementptr inbounds i8, ptr %118, i64 %120
  %122 = load i8, ptr %121, align 1, !tbaa !34
  %123 = zext i8 %122 to i32
  %124 = icmp eq i32 %123, 0
  br i1 %124, label %125, label %126

125:                                              ; preds = %117
  store i32 10, ptr %14, align 4
  br label %172

126:                                              ; preds = %117
  %127 = load ptr, ptr %5, align 8, !tbaa !33
  %128 = load i32, ptr %8, align 4, !tbaa !11
  %129 = sext i32 %128 to i64
  %130 = getelementptr inbounds i8, ptr %127, i64 %129
  %131 = load i8, ptr %130, align 1, !tbaa !34
  %132 = zext i8 %131 to i32
  store i32 %132, ptr %17, align 4, !tbaa !11
  %133 = load i32, ptr %17, align 4, !tbaa !11
  %134 = load i32, ptr %11, align 4, !tbaa !11
  %135 = icmp sgt i32 %133, %134
  br i1 %135, label %136, label %137

136:                                              ; preds = %126
  store i32 0, ptr %2, align 4
  store i32 1, ptr %14, align 4
  br label %172

137:                                              ; preds = %126
  %138 = load i32, ptr %17, align 4, !tbaa !11
  %139 = sext i32 %138 to i64
  %140 = getelementptr inbounds [17 x i32], ptr %6, i64 0, i64 %139
  %141 = load i32, ptr %140, align 4, !tbaa !11
  store i32 %141, ptr %10, align 4, !tbaa !11
  %142 = load i32, ptr %17, align 4, !tbaa !11
  %143 = sext i32 %142 to i64
  %144 = getelementptr inbounds [17 x i32], ptr %7, i64 0, i64 %143
  %145 = load i32, ptr %144, align 4, !tbaa !11
  store i32 %145, ptr %18, align 4, !tbaa !11
  %146 = load i32, ptr %10, align 4, !tbaa !11
  %147 = load i32, ptr %18, align 4, !tbaa !11
  %148 = add nsw i32 %146, %147
  %149 = load i32, ptr %17, align 4, !tbaa !11
  %150 = sext i32 %149 to i64
  %151 = getelementptr inbounds [17 x i32], ptr %6, i64 0, i64 %150
  store i32 %148, ptr %151, align 4, !tbaa !11
  %152 = load i32, ptr %11, align 4, !tbaa !11
  %153 = icmp sgt i32 %148, %152
  br i1 %153, label %154, label %155

154:                                              ; preds = %137
  store i32 0, ptr %2, align 4
  store i32 1, ptr %14, align 4
  br label %172

155:                                              ; preds = %137
  %156 = load ptr, ptr %4, align 8, !tbaa !253
  %157 = load i32, ptr %10, align 4, !tbaa !11
  %158 = sext i32 %157 to i64
  %159 = getelementptr inbounds i16, ptr %156, i64 %158
  store ptr %159, ptr %16, align 8, !tbaa !253
  br label %160

160:                                              ; preds = %164, %155
  %161 = load i32, ptr %18, align 4, !tbaa !11
  %162 = add nsw i32 %161, -1
  store i32 %162, ptr %18, align 4, !tbaa !11
  %163 = icmp sge i32 %162, 0
  br i1 %163, label %164, label %171

164:                                              ; preds = %160
  %165 = load i32, ptr %8, align 4, !tbaa !11
  %166 = trunc i32 %165 to i16
  %167 = load ptr, ptr %16, align 8, !tbaa !253
  %168 = load i32, ptr %18, align 4, !tbaa !11
  %169 = sext i32 %168 to i64
  %170 = getelementptr inbounds i16, ptr %167, i64 %169
  store i16 %166, ptr %170, align 2, !tbaa !115
  br label %160, !llvm.loop !255

171:                                              ; preds = %160
  store i32 0, ptr %14, align 4
  br label %172

172:                                              ; preds = %171, %154, %136, %125
  call void @llvm.lifetime.end.p0(i64 4, ptr %18) #11
  call void @llvm.lifetime.end.p0(i64 4, ptr %17) #11
  call void @llvm.lifetime.end.p0(i64 8, ptr %16) #11
  %173 = load i32, ptr %14, align 4
  switch i32 %173, label %179 [
    i32 0, label %174
    i32 10, label %175
  ]

174:                                              ; preds = %172
  br label %175

175:                                              ; preds = %174, %172
  %176 = load i32, ptr %8, align 4, !tbaa !11
  %177 = add nsw i32 %176, 1
  store i32 %177, ptr %8, align 4, !tbaa !11
  br label %113, !llvm.loop !256

178:                                              ; preds = %113
  store i32 1, ptr %2, align 4
  store i32 1, ptr %14, align 4
  br label %179

179:                                              ; preds = %178, %172, %66
  call void @llvm.lifetime.end.p0(i64 4, ptr %13) #11
  call void @llvm.lifetime.end.p0(i64 4, ptr %12) #11
  call void @llvm.lifetime.end.p0(i64 4, ptr %11) #11
  call void @llvm.lifetime.end.p0(i64 4, ptr %10) #11
  call void @llvm.lifetime.end.p0(i64 4, ptr %9) #11
  call void @llvm.lifetime.end.p0(i64 4, ptr %8) #11
  call void @llvm.lifetime.end.p0(i64 68, ptr %7) #11
  call void @llvm.lifetime.end.p0(i64 68, ptr %6) #11
  call void @llvm.lifetime.end.p0(i64 8, ptr %5) #11
  call void @llvm.lifetime.end.p0(i64 8, ptr %4) #11
  %180 = load i32, ptr %2, align 4
  ret i32 %180
}