; Function Attrs: nofree norecurse nosync nounwind memory(readwrite, inaccessiblemem: none) uwtable
define internal fastcc range(i32 0, 2) i32 @lzx_make_huffman_table(ptr noundef captures(none) %0) unnamed_addr #15 {
  %2 = alloca [17 x i32], align 16
  %3 = alloca [17 x i32], align 16
  call void @llvm.lifetime.start.p0(i64 68, ptr nonnull %2) #18
  call void @llvm.lifetime.start.p0(i64 68, ptr nonnull %3) #18
  %4 = getelementptr inbounds nuw i8, ptr %0, i64 4
  br label %5

5:                                                ; preds = %1, %5
  %indvars.iv = phi i64 [ 1, %1 ], [ %indvars.iv.next, %5 ]
  %.05975 = phi i32 [ 0, %1 ], [ %.160, %5 ]
  %.06274 = phi i32 [ 0, %1 ], [ %.163, %5 ]
  %.06473 = phi i32 [ 32768, %1 ], [ %12, %5 ]
  %6 = getelementptr inbounds nuw [17 x i32], ptr %2, i64 0, i64 %indvars.iv
  store i32 %.06274, ptr %6, align 4, !tbaa !95
  %7 = getelementptr inbounds nuw [17 x i32], ptr %3, i64 0, i64 %indvars.iv
  store i32 %.06473, ptr %7, align 4, !tbaa !95
  %8 = getelementptr inbounds nuw [17 x i32], ptr %4, i64 0, i64 %indvars.iv
  %9 = load i32, ptr %8, align 4, !tbaa !95
  %.not70 = icmp eq i32 %9, 0
  %10 = mul nsw i32 %9, %.06473
  %.163 = add nsw i32 %10, %.06274
  %11 = trunc nuw nsw i64 %indvars.iv to i32
  %.160 = select i1 %.not70, i32 %.05975, i32 %11
  %indvars.iv.next = add nuw nsw i64 %indvars.iv, 1
  %12 = lshr i32 %.06473, 1
  %exitcond.not = icmp eq i64 %indvars.iv.next, 17
  br i1 %exitcond.not, label %13, label %5, !llvm.loop !221

13:                                               ; preds = %5
  %14 = and i32 %.163, 65535
  %.not = icmp eq i32 %14, 0
  br i1 %.not, label %15, label %.thread

15:                                               ; preds = %13
  %16 = getelementptr inbounds nuw i8, ptr %0, i64 84
  %17 = load i32, ptr %16, align 4, !tbaa !175
  %18 = icmp sgt i32 %.160, %17
  br i1 %18, label %.thread, label %19

19:                                               ; preds = %15
  %20 = getelementptr inbounds nuw i8, ptr %0, i64 80
  store i32 %.160, ptr %20, align 8, !tbaa !209
  %21 = icmp samesign ult i32 %.160, 16
  br i1 %21, label %22, label %.loopexit72

22:                                               ; preds = %19
  %23 = sub nuw nsw i32 16, %.160
  %.not6977 = icmp eq i32 %.160, 0
  br i1 %.not6977, label %.loopexit72, label %.lr.ph.preheader

.lr.ph.preheader:                                 ; preds = %22
  %24 = add nuw nsw i32 %.160, 1
  %wide.trip.count = zext nneg i32 %24 to i64
  br label %.lr.ph

.lr.ph:                                           ; preds = %.lr.ph.preheader, %.lr.ph
  %indvars.iv88 = phi i64 [ 1, %.lr.ph.preheader ], [ %indvars.iv.next89, %.lr.ph ]
  %25 = getelementptr inbounds nuw [17 x i32], ptr %2, i64 0, i64 %indvars.iv88
  %26 = load i32, ptr %25, align 4, !tbaa !95
  %27 = ashr i32 %26, %23
  store i32 %27, ptr %25, align 4, !tbaa !95
  %28 = getelementptr inbounds nuw [17 x i32], ptr %3, i64 0, i64 %indvars.iv88
  %29 = load i32, ptr %28, align 4, !tbaa !95
  %30 = ashr i32 %29, %23
  store i32 %30, ptr %28, align 4, !tbaa !95
  %indvars.iv.next89 = add nuw nsw i64 %indvars.iv88, 1
  %exitcond92.not = icmp eq i64 %indvars.iv.next89, %wide.trip.count
  br i1 %exitcond92.not, label %.loopexit72, label %.lr.ph, !llvm.loop !222

.loopexit72:                                      ; preds = %.lr.ph, %22, %19
  %31 = shl nuw i32 1, %17
  %32 = getelementptr inbounds nuw i8, ptr %0, i64 96
  %33 = load ptr, ptr %32, align 8, !tbaa !121
  %34 = getelementptr inbounds nuw i8, ptr %0, i64 72
  %35 = load ptr, ptr %34, align 8, !tbaa !120
  %36 = load i32, ptr %0, align 8, !tbaa !174
  %37 = getelementptr inbounds nuw i8, ptr %0, i64 88
  store i32 0, ptr %37, align 8, !tbaa !223
  %38 = icmp sgt i32 %36, 0
  br i1 %38, label %.lr.ph82.preheader, label %.thread

.lr.ph82.preheader:                               ; preds = %.loopexit72
  %wide.trip.count99 = zext nneg i32 %36 to i64
  br label %.lr.ph82

.lr.ph82:                                         ; preds = %.lr.ph82.preheader, %.loopexit
  %indvars.iv96 = phi i64 [ 0, %.lr.ph82.preheader ], [ %indvars.iv.next97, %.loopexit ]
  %39 = getelementptr inbounds nuw i8, ptr %35, i64 %indvars.iv96
  %40 = load i8, ptr %39, align 1, !tbaa !4
  %41 = icmp eq i8 %40, 0
  br i1 %41, label %.loopexit, label %42

42:                                               ; preds = %.lr.ph82
  %43 = zext i8 %40 to i32
  %44 = icmp slt i32 %31, %43
  br i1 %44, label %.thread, label %45

45:                                               ; preds = %42
  %46 = zext i8 %40 to i64
  %47 = getelementptr inbounds nuw [17 x i32], ptr %2, i64 0, i64 %46
  %48 = load i32, ptr %47, align 4, !tbaa !95
  %49 = getelementptr inbounds nuw [17 x i32], ptr %3, i64 0, i64 %46
  %50 = load i32, ptr %49, align 4, !tbaa !95
  %51 = add nsw i32 %50, %48
  store i32 %51, ptr %47, align 4, !tbaa !95
  %52 = icmp sgt i32 %51, %31
  br i1 %52, label %.thread, label %53

53:                                               ; preds = %45
  %54 = sext i32 %48 to i64
  %55 = getelementptr inbounds i16, ptr %33, i64 %54
  %56 = icmp sgt i32 %50, 0
  br i1 %56, label %.lr.ph80, label %.loopexit

.lr.ph80:                                         ; preds = %53
  %57 = trunc i64 %indvars.iv96 to i16
  %58 = zext nneg i32 %50 to i64
  br label %59

59:                                               ; preds = %.lr.ph80, %59
  %indvars.iv93 = phi i64 [ %58, %.lr.ph80 ], [ %indvars.iv.next94, %59 ]
  %indvars.iv.next94 = add nsw i64 %indvars.iv93, -1
  %60 = getelementptr inbounds nuw i16, ptr %55, i64 %indvars.iv.next94
  store i16 %57, ptr %60, align 2, !tbaa !215
  %61 = icmp samesign ugt i64 %indvars.iv93, 1
  br i1 %61, label %59, label %.loopexit, !llvm.loop !224

.loopexit:                                        ; preds = %59, %53, %.lr.ph82
  %indvars.iv.next97 = add nuw nsw i64 %indvars.iv96, 1
  %exitcond100.not = icmp eq i64 %indvars.iv.next97, %wide.trip.count99
  br i1 %exitcond100.not, label %.thread, label %.lr.ph82, !llvm.loop !225

.thread:                                          ; preds = %.loopexit, %42, %45, %.loopexit72, %13, %15
  %.055 = phi i32 [ 0, %15 ], [ 0, %13 ], [ 1, %.loopexit72 ], [ 1, %.loopexit ], [ 0, %42 ], [ 0, %45 ]
  call void @llvm.lifetime.end.p0(i64 68, ptr nonnull %3) #18
  call void @llvm.lifetime.end.p0(i64 68, ptr nonnull %2) #18
  ret i32 %.055
}